; Function Attrs: mustprogress uwtable
define dso_local void @_ZN22cmCTestMemCheckHandler10InitializeEv(ptr noundef nonnull align 8 dereferenceable(4760) %0) unnamed_addr #3 align 2 personality ptr @__gxx_personality_v0 {
  tail call void @_ZN18cmCTestTestHandler10InitializeEv(ptr noundef nonnull align 8 dereferenceable(4416) %0)
  %2 = getelementptr inbounds i8, ptr %0, i64 4704
  store i8 0, ptr %2, align 8
  %3 = getelementptr inbounds i8, ptr %0, i64 428
  store i32 0, ptr %3, align 4
  %4 = getelementptr inbounds i8, ptr %0, i64 432
  store i32 0, ptr %4, align 8
  %5 = getelementptr inbounds i8, ptr %0, i64 4480
  tail call void @_ZNSt7__cxx1112basic_stringIcSt11char_traitsIcESaIcEE5clearEv(ptr noundef nonnull align 8 dereferenceable(32) %5) #17
  %6 = getelementptr inbounds i8, ptr %0, i64 4512
  %7 = load ptr, ptr %6, align 8
  %8 = getelementptr inbounds i8, ptr %0, i64 4520
  %9 = load ptr, ptr %8, align 8
  %.not.i.i = icmp eq ptr %9, %7
  br i1 %.not.i.i, label %_ZNSt6vectorINSt7__cxx1112basic_stringIcSt11char_traitsIcESaIcEEESaIS5_EE5clearEv.exit, label %.lr.ph.i.i.i.i.i

.lr.ph.i.i.i.i.i:                                 ; preds = %1, %.lr.ph.i.i.i.i.i
  %.05.i.i.i.i.i = phi ptr [ %10, %.lr.ph.i.i.i.i.i ], [ %7, %1 ]
  tail call void @_ZNSt7__cxx1112basic_stringIcSt11char_traitsIcESaIcEED1Ev(ptr noundef nonnull align 8 dereferenceable(32) %.05.i.i.i.i.i) #17
  %10 = getelementptr inbounds i8, ptr %.05.i.i.i.i.i, i64 32
  %.not.i.i.i.i.i = icmp eq ptr %10, %9
  br i1 %.not.i.i.i.i.i, label %_ZSt8_DestroyIPNSt7__cxx1112basic_stringIcSt11char_traitsIcESaIcEEES5_EvT_S7_RSaIT0_E.exit.i.i, label %.lr.ph.i.i.i.i.i, !llvm.loop !5

_ZSt8_DestroyIPNSt7__cxx1112basic_stringIcSt11char_traitsIcESaIcEEES5_EvT_S7_RSaIT0_E.exit.i.i: ; preds = %.lr.ph.i.i.i.i.i
  store ptr %7, ptr %8, align 8
  br label %_ZNSt6vectorINSt7__cxx1112basic_stringIcSt11char_traitsIcESaIcEEESaIS5_EE5clearEv.exit

_ZNSt6vectorINSt7__cxx1112basic_stringIcSt11char_traitsIcESaIcEEESaIS5_EE5clearEv.exit: ; preds = %1, %_ZSt8_DestroyIPNSt7__cxx1112basic_stringIcSt11char_traitsIcESaIcEEES5_EvT_S7_RSaIT0_E.exit.i.i
  %11 = getelementptr inbounds i8, ptr %0, i64 4536
  %12 = load ptr, ptr %11, align 8
  %13 = getelementptr inbounds i8, ptr %0, i64 4544
  %14 = load ptr, ptr %13, align 8
  %.not.i.i1 = icmp eq ptr %14, %12
  br i1 %.not.i.i1, label %_ZNSt6vectorINSt7__cxx1112basic_stringIcSt11char_traitsIcESaIcEEESaIS5_EE5clearEv.exit6, label %.lr.ph.i.i.i.i.i2

.lr.ph.i.i.i.i.i2:                                ; preds = %_ZNSt6vectorINSt7__cxx1112basic_stringIcSt11char_traitsIcESaIcEEESaIS5_EE5clearEv.exit, %.lr.ph.i.i.i.i.i2
  %.05.i.i.i.i.i3 = phi ptr [ %15, %.lr.ph.i.i.i.i.i2 ], [ %12, %_ZNSt6vectorINSt7__cxx1112basic_stringIcSt11char_traitsIcESaIcEEESaIS5_EE5clearEv.exit ]
  tail call void @_ZNSt7__cxx1112basic_stringIcSt11char_traitsIcESaIcEED1Ev(ptr noundef nonnull align 8 dereferenceable(32) %.05.i.i.i.i.i3) #17
  %15 = getelementptr inbounds i8, ptr %.05.i.i.i.i.i3, i64 32
  %.not.i.i.i.i.i4 = icmp eq ptr %15, %14
  br i1 %.not.i.i.i.i.i4, label %_ZSt8_DestroyIPNSt7__cxx1112basic_stringIcSt11char_traitsIcESaIcEEES5_EvT_S7_RSaIT0_E.exit.i.i5, label %.lr.ph.i.i.i.i.i2, !llvm.loop !5

_ZSt8_DestroyIPNSt7__cxx1112basic_stringIcSt11char_traitsIcESaIcEEES5_EvT_S7_RSaIT0_E.exit.i.i5: ; preds = %.lr.ph.i.i.i.i.i2
  store ptr %12, ptr %13, align 8
  br label %_ZNSt6vectorINSt7__cxx1112basic_stringIcSt11char_traitsIcESaIcEEESaIS5_EE5clearEv.exit6

_ZNSt6vectorINSt7__cxx1112basic_stringIcSt11char_traitsIcESaIcEEESaIS5_EE5clearEv.exit6: ; preds = %_ZNSt6vectorINSt7__cxx1112basic_stringIcSt11char_traitsIcESaIcEEESaIS5_EE5clearEv.exit, %_ZSt8_DestroyIPNSt7__cxx1112basic_stringIcSt11char_traitsIcESaIcEEES5_EvT_S7_RSaIT0_E.exit.i.i5
  %16 = getelementptr inbounds i8, ptr %0, i64 4560
  store i32 0, ptr %16, align 8
  %17 = getelementptr inbounds i8, ptr %0, i64 4568
  tail call void @_ZNSt7__cxx1112basic_stringIcSt11char_traitsIcESaIcEE5clearEv(ptr noundef nonnull align 8 dereferenceable(32) %17) #17
  %18 = getelementptr inbounds i8, ptr %0, i64 4708
  store i32 0, ptr %18, align 4
  ret void
}